; Function Attrs: nounwind uwtable
define ptr @l_Lean_Elab_Tactic_BVDecide_Frontend_Normalize_canonicalizeWithSharing(ptr noundef %0, ptr noundef %1, ptr noundef %2, ptr noundef %3, ptr noundef %4, ptr noundef %5, ptr noundef %6, ptr noundef %7, ptr noundef %8, ptr noundef %9, ptr noundef %10) local_unnamed_addr #0 {
  %12 = load ptr, ptr @l_Lean_Elab_Tactic_BVDecide_Frontend_Normalize_VarStateM_computeCoefficients_go___closed__4, align 8, !tbaa !4
  tail call void @lean_inc_heartbeat() #5
  %13 = tail call noalias ptr @mi_malloc_small(i64 noundef 56) #5
  %14 = icmp eq ptr %13, null
  br i1 %14, label %15, label %lean_alloc_closure.exit

15:                                               ; preds = %11
  tail call void @lean_internal_panic_out_of_memory() #6
  unreachable

lean_alloc_closure.exit:                          ; preds = %11
  %16 = getelementptr inbounds nuw i8, ptr %13, i64 4
  store i32 1, ptr %13, align 4, !tbaa !8
  store i32 -184549320, ptr %16, align 4
  %17 = getelementptr inbounds nuw i8, ptr %13, i64 8
  store ptr @l_Lean_Elab_Tactic_BVDecide_Frontend_Normalize_canonicalizeWithSharing___lambda__7___boxed, ptr %17, align 8, !tbaa !4
  %18 = getelementptr inbounds nuw i8, ptr %13, i64 16
  store i16 13, ptr %18, align 8, !tbaa !15
  %19 = getelementptr inbounds nuw i8, ptr %13, i64 18
  store i16 4, ptr %19, align 2, !tbaa !15
  %20 = getelementptr inbounds nuw i8, ptr %13, i64 24
  store ptr %1, ptr %20, align 8, !tbaa !4
  %21 = getelementptr inbounds nuw i8, ptr %13, i64 32
  store ptr %12, ptr %21, align 8, !tbaa !4
  %22 = getelementptr inbounds nuw i8, ptr %13, i64 40
  store ptr %2, ptr %22, align 8, !tbaa !4
  %23 = getelementptr inbounds nuw i8, ptr %13, i64 48
  store ptr %0, ptr %23, align 8, !tbaa !4
  %24 = load ptr, ptr @l_Lean_Elab_Tactic_BVDecide_Frontend_Normalize_canonicalizeWithSharing___closed__1, align 8, !tbaa !4
  tail call void @lean_inc_heartbeat() #5
  %25 = tail call noalias ptr @mi_malloc_small(i64 noundef 40) #5
  %26 = icmp eq ptr %25, null
  br i1 %26, label %27, label %lean_alloc_closure.exit25

27:                                               ; preds = %lean_alloc_closure.exit
  tail call void @lean_internal_panic_out_of_memory() #6
  unreachable

lean_alloc_closure.exit25:                        ; preds = %lean_alloc_closure.exit
  %28 = getelementptr inbounds nuw i8, ptr %25, i64 4
  store i32 1, ptr %25, align 4, !tbaa !8
  store i32 -184549336, ptr %28, align 4
  %29 = getelementptr inbounds nuw i8, ptr %25, i64 8
  store ptr @l_ReaderT_bind___at_Lean_Meta_Simp_discharge_x3f_x27___spec__2___rarg, ptr %29, align 8, !tbaa !4
  %30 = getelementptr inbounds nuw i8, ptr %25, i64 16
  store i16 10, ptr %30, align 8, !tbaa !15
  %31 = getelementptr inbounds nuw i8, ptr %25, i64 18
  store i16 2, ptr %31, align 2, !tbaa !15
  %32 = getelementptr inbounds nuw i8, ptr %25, i64 24
  store ptr %24, ptr %32, align 8, !tbaa !4
  %33 = getelementptr inbounds nuw i8, ptr %25, i64 32
  store ptr %13, ptr %33, align 8, !tbaa !4
  %34 = load ptr, ptr @l_Lean_Elab_Tactic_BVDecide_Frontend_Normalize_canonicalizeWithSharing___closed__2, align 8, !tbaa !4
  %35 = load ptr, ptr @l_Lean_Elab_Tactic_BVDecide_Frontend_Normalize_Op_instToMessageData___closed__1, align 8, !tbaa !4
  %36 = tail call ptr @l_Lean_withTraceNode___at_Lean_Elab_Tactic_BVDecide_Frontend_Normalize_canonicalizeWithSharing___spec__2(ptr noundef %12, ptr noundef %34, ptr noundef nonnull %25, i8 noundef zeroext 0, ptr noundef %35, ptr noundef %3, ptr noundef %4, ptr noundef %5, ptr noundef %6, ptr noundef %7, ptr noundef %8, ptr noundef %9, ptr noundef %10)
  ret ptr %36
}